target datalayout = "e-m:e-p270:32:32-p271:32:32-p272:64:64-i64:64-i128:128-f80:128-n8:16:32:64-S128"
target triple = "x86_64-pc-linux-gnu"

@.str.413 = private unnamed_addr constant [15 x i8] c"Escape %d (%d)\00", align 1
@.str.414 = private unnamed_addr constant [13 x i8] c"%.1f dB (%d)\00", align 1

; Function Attrs: null_pointer_is_valid sspstrong uwtable
define internal void @rr_pkt_pwr_ctrl_prm_par_fmt(ptr noundef %0, i32 noundef %1) #1 {
  %3 = alloca ptr, align 8
  %4 = alloca i32, align 4
  store ptr %0, ptr %3, align 8
  store i32 %1, ptr %4, align 4
  %5 = load i32, ptr %4, align 4
  %6 = icmp uge i32 %5, 61
  br i1 %6, label %7, label %15

7:                                                ; preds = %2
  %8 = load ptr, ptr %3, align 8
  %9 = load ptr, ptr %3, align 8
  %10 = call i64 @llvm.objectsize.i64.p0(ptr %9, i1 false, i1 true, i1 true)
  %11 = load i32, ptr %4, align 4
  %12 = sub i32 %11, 60
  %13 = load i32, ptr %4, align 4
  %14 = call i32 (ptr, i64, i32, i64, ptr, ...) @__snprintf_chk(ptr noundef %8, i64 noundef 240, i32 noundef 2, i64 noundef %10, ptr noundef @.str.413, i32 noundef %12, i32 noundef %13)
  br label %25

15:                                               ; preds = %2
  %16 = load ptr, ptr %3, align 8
  %17 = load ptr, ptr %3, align 8
  %18 = call i64 @llvm.objectsize.i64.p0(ptr %17, i1 false, i1 true, i1 true)
  %19 = load i32, ptr %4, align 4
  %20 = uitofp i32 %19 to float
  %21 = fmul float %20, 0x3FD99999A0000000
  %22 = fpext float %21 to double
  %23 = load i32, ptr %4, align 4
  %24 = call i32 (ptr, i64, i32, i64, ptr, ...) @__snprintf_chk(ptr noundef %16, i64 noundef 240, i32 noundef 2, i64 noundef %18, ptr noundef @.str.414, double noundef %22, i32 noundef %23)
  br label %25

25:                                               ; preds = %15, %7
  ret void
}