; Function Attrs: nofree null_pointer_is_valid sspstrong uwtable
define internal void @rr_pkt_pwr_ctrl_prm_par_fmt(ptr noundef %0, i32 noundef %1) #3 {
  %3 = icmp ugt i32 %1, 60
  br i1 %3, label %4, label %7

4:                                                ; preds = %2
  %5 = add i32 %1, -60
  %6 = tail call i32 (ptr, i64, i32, i64, ptr, ...) @__snprintf_chk(ptr noundef %0, i64 noundef 240, i32 noundef 2, i64 noundef -1, ptr noundef nonnull @.str.413, i32 noundef %5, i32 noundef %1)
  br label %12

7:                                                ; preds = %2
  %8 = uitofp nneg i32 %1 to float
  %9 = fmul float %8, 0x3FD99999A0000000
  %10 = fpext float %9 to double
  %11 = tail call i32 (ptr, i64, i32, i64, ptr, ...) @__snprintf_chk(ptr noundef %0, i64 noundef 240, i32 noundef 2, i64 noundef -1, ptr noundef nonnull @.str.414, double noundef %10, i32 noundef %1)
  br label %12

12:                                               ; preds = %7, %4
  ret void
}